ccopy_reg
_reconstructor
p1
(csrc.play
Play
p2
c__builtin__
object
p3
NtRp4
(dp5
S'body'
p6
g1
(csrc.body
Body
p7
g3
NtRp8
(dp9
S'control'
p10
I3
sS'core'
p11
g1
(csrc.body
Core
p12
g3
NtRp13
(dp14
g6
g8
sS'status'
p15
S''
sS'parent'
p16
NsS'hp'
p17
I0
sS'dietimer'
p18
NsS'glowtime'
p19
I0
sS'worldpos'
p20
(F0
F0
tp21
sS'budcolors'
p22
(dp23
((I1
I-1
tI5
tp24
S'app2'
p25
s((I0
I-1
tp26
I0
tp27
S'app0'
p28
s((I1
I0
tI4
tp29
S'app1'
p30
s((I-1
I1
tp31
I2
tp32
S'app2'
p33
s((I-1
I0
tp34
I1
tp35
S'app1'
p36
s((I0
I1
tI3
tp37
S'app0'
p38
ssS'buds'
p39
(dp40
g24
g1
(csrc.body
Mutagenitor
p41
g3
NtRp42
(dp43
g6
g8
sg15
S''
sg16
g13
sg17
I8
sg18
Nsg19
I0
sS'growtimer'
p44
I0
sg22
(dp45
sg39
(dp46
sg20
(F1.5
F-0.8660254037844386
tp47
sS'dusts'
p48
(lp49
sS'img'
p50
NsS'hearttime'
p51
I0
sS'edgeworldpos'
p52
(F0.75
F-0.4330127018922193
tp53
sS'lastkey'
p54
NsS'edge'
p55
I5
sS'y'
I-1
sS'x'
I1
sbsg27
g1
(csrc.body
Eye
p56
g3
NtRp57
(dp58
g6
g8
sg15
S''
sg16
g13
sg17
I8
sg18
Nsg19
I0
sg44
I0
sg22
(dp59
sS'tblink'
p60
F0.13800000000000001
sg20
(F0
F-1.7320508075688772
tp61
sg48
(lp62
sg51
I0
sg50
Nsg52
(F0
F-0.8660254037844386
tp63
sg54
Nsg55
I0
sS'y'
I-1
sS'x'
I0
sg39
(dp64
sbsg29
g1
(csrc.body
Appendage
p65
g3
NtRp66
(dp67
g6
g8
sg15
S''
sg16
g13
sS'color'
p68
S'app1'
p69
sg17
I0
sg18
Nsg19
I0
sS'appspec'
p70
g1
(csrc.mechanics
AppendageSpec
p71
g3
NtRp72
(dp73
g68
g69
sS'dedges'
p74
(lp75
I3
aI4
asbsg44
I0
sg22
(dp76
((I2
I0
tI4
tp77
g69
s((I2
I-1
tI5
tp78
g69
ssg39
(dp79
g77
Nsg78
Nssg20
(F1.5
F0.8660254037844386
tp80
sg48
(lp81
sg50
Nsg51
I0
sg52
(F0.75
F0.4330127018922193
tp82
sg54
Nsg55
I4
sS'y'
I0
sS'x'
I1
sbsg32
g1
(g41
g3
NtRp83
(dp84
g6
g8
sg15
S''
sg16
g13
sS'pulsefreq'
p85
I0
sg17
I8
sg18
Nsg19
I0
sg44
I0
sg22
(dp86
sg39
(dp87
sg20
(F-1.5
F0.8660254037844386
tp88
sg48
(lp89
sg50
Nsg51
I0
sg52
(F-0.75
F0.4330127018922193
tp90
sg54
Nsg55
I2
sS'y'
I1
sS'x'
I-1
sbsg35
g1
(g65
g3
NtRp91
(dp92
g6
g8
sg15
S''
sg16
g13
sg68
S'app1'
p93
sg17
I0
sg18
Nsg19
I0
sg70
g1
(g71
g3
NtRp94
(dp95
g68
g93
sg74
(lp96
I3
aI4
asbsg44
I0
sg22
(dp97
((I-2
I0
tp98
I1
tp99
g93
s((I-2
I1
tp100
I2
tp101
g93
ssg39
(dp102
g99
Nsg101
Nssg20
(F-1.5
F-0.8660254037844386
tp103
sg48
(lp104
sg50
Nsg51
I0
sg52
(F-0.75
F-0.4330127018922193
tp105
sg54
Nsg55
I1
sS'y'
I0
sS'x'
I-1
sbsg37
g1
(csrc.body
Brain
p106
g3
NtRp107
(dp108
g6
g8
sg15
S''
sg16
g13
sg17
I8
sg18
Nsg19
I0
sg44
I0
sg22
(dp109
sg39
(dp110
sg20
(F0
F1.7320508075688772
tp111
sg48
(lp112
sg50
Nsg51
I0
sg52
(F0
F0.8660254037844386
tp113
sg54
Nsg55
I3
sS'y'
I1
sS'x'
I0
sbssS'nmouth'
p114
I0
sg48
(lp115
sg51
I0
sg50
Nsg52
(F0
F0.8660254037844386
tp116
sg44
I0
sg54
Nsg55
I0
sS'y'
I0
sS'x'
I0
sbsS'ncubes'
p117
I0
sS'plaster'
p118
I0
sS'maxcontrol'
p119
I12
sS'maxmutagen'
p120
I65
sS'takenbuds'
p121
(dp122
g24
g13
sg78
g66
sg35
g13
sg32
g13
sg27
g13
sg29
g13
sg101
g91
sg99
g91
sg37
g13
sg77
g66
ssS'suckers'
p123
(lp124
g42
ag83
asS'tick'
p125
F492.16400000001005
sS'organs'
p126
(dp127
(I0
I1
tp128
g107
s(I0
I-1
tp129
g57
s(I-1
I1
tp130
g83
s(I1
I-1
tp131
g42
ssS'maxplaster'
p132
I20
sS'mask'
p133
NsS'mutagen'
p134
I0
sS'attackers'
p135
(lp136
sS'parts'
p137
(lp138
g13
ag107
ag83
ag42
ag57
ag66
ag91
asS'takentiles'
p139
(dp140
(I0
I1
tp141
g107
s(I0
I-1
tp142
g57
s(I-1
I1
tp143
g83
s(I0
I0
tp144
g13
s(I1
I-1
tp145
g42
ssS'takenedges'
p146
(dp147
((I0
I0
tI2
tp148
g13
s((I1
I0
tI1
tp149
g66
s((I0
I0
tI0
tp150
g13
s((I0
I0
tI1
tp151
g13
s(g31
I2
tp152
g13
s((I1
I0
tI2
tp153
g66
s(g26
I0
tp154
g13
s(g100
I2
tp155
g91
s(g34
I1
tp156
g13
s(g98
I1
tp157
g91
ssS'shields'
p158
(lp159
sbsg15
g1
(csrc.status
Status
p160
g3
NtRp161
(dp162
S'healmeter'
p163
g1
(csrc.status
HealMeter
p164
g3
NtRp165
(dp166
S'rect'
p167
cpygame
__rect_constructor
p168
(I140
I310
I40
I20
tRp169
sS'amount'
p170
I20
sS'goalheight'
p171
I20
sS'bottom'
p172
(I160
I330
tp173
sS'baseimg'
p174
NsS'maxheight'
p175
I300
sS'height'
p176
F20
sbsg6
g8
sg119
I10
sS'controlrect'
p177
g168
(I42
I420
I107
I61
tRp178
sS'selected'
p179
Nsg10
I5
sS'brainrect'
p180
g168
(I-20
I406
I80
I80
tRp181
sS'brainimg'
p182
NsS'mutagenmeter'
p183
g1
(csrc.status
MutagenMeter
p184
g3
NtRp185
(dp186
S'icons'
p187
(lp188
g1
(csrc.status
BuildIcon
p189
g3
NtRp190
(dp191
S'linepos'
p192
(I124
I310
tp193
sS'number'
p194
I0
sS'meter'
p195
g185
sS'visible'
p196
I01
sS'active'
p197
I01
sS'pointedto'
p198
I00
sS'name'
p199
S'mutagenitor'
p200
sg50
Nsg179
I00
sg170
I20
sg167
g168
(I734
I292
I36
I36
tRp201
sS'y'
I310
sS'x'
Nsbag1
(g189
g3
NtRp202
(dp203
g192
(I124
I295
tp204
sg194
I1
sg195
g185
sg196
I01
sg197
I01
sg198
I00
sg199
S'eye'
p205
sg50
Nsg179
I00
sg170
I35
sg167
g168
(I698
I277
I36
I36
tRp206
sS'y'
I295
sS'x'
Nsbag1
(g189
g3
NtRp207
(dp208
g192
(I124
I280
tp209
sg194
I2
sg195
g185
sg196
I01
sg197
I01
sg198
I00
sg199
S'brain'
p210
sg50
Nsg179
I00
sg170
I50
sg167
g168
(I662
I262
I36
I36
tRp211
sS'y'
I280
sS'x'
Nsbag1
(g189
g3
NtRp212
(dp213
g192
(I124
I265
tp214
sg194
I3
sg195
g185
sg196
I01
sg197
I01
sg198
I00
sg199
S'mutagenpod'
p215
sg50
Nsg179
I00
sg170
I65
sg167
g168
(I734
I247
I36
I36
tRp216
sS'y'
I265
sS'x'
Nsbag1
(g189
g3
NtRp217
(dp218
g199
S'plasteritor'
p219
sg50
Nsg179
I00
sg194
I4
sg195
g185
sg196
I00
sg170
I80
sg197
NsS'x'
Nsg198
I00
sbag1
(g189
g3
NtRp220
(dp221
g199
S'zotter'
p222
sg50
Nsg179
I00
sg194
I5
sg195
g185
sg196
I00
sg170
I95
sg197
NsS'x'
Nsg198
I00
sbag1
(g189
g3
NtRp223
(dp224
g199
S'cube'
p225
sg50
Nsg179
I00
sg194
I6
sg195
g185
sg196
I00
sg170
I110
sg197
NsS'x'
Nsg198
I00
sbag1
(g189
g3
NtRp226
(dp227
g199
S'plasterpod'
p228
sg50
Nsg179
I00
sg194
I7
sg195
g185
sg196
I00
sg170
I125
sg197
NsS'x'
Nsg198
I00
sbag1
(g189
g3
NtRp229
(dp230
g199
S'bulb'
p231
sg50
Nsg179
I00
sg194
I8
sg195
g185
sg196
I00
sg170
I140
sg197
NsS'x'
Nsg198
I00
sbag1
(g189
g3
NtRp232
(dp233
g199
S'shield'
p234
sg50
Nsg179
I00
sg194
I9
sg195
g185
sg196
I00
sg170
I155
sg197
NsS'x'
Nsg198
I00
sbag1
(g189
g3
NtRp235
(dp236
g199
S'eyebrain'
p237
sg50
Nsg179
I00
sg194
I10
sg195
g185
sg196
I00
sg170
I170
sg197
NsS'x'
Nsg198
I00
sbag1
(g189
g3
NtRp238
(dp239
g199
S'giantmutagenpod'
p240
sg50
Nsg179
I00
sg194
I11
sg195
g185
sg196
I00
sg170
I185
sg197
NsS'x'
Nsg198
I00
sbag1
(g189
g3
NtRp241
(dp242
g199
S'tripleeye'
p243
sg50
Nsg179
I00
sg194
I12
sg195
g185
sg196
I00
sg170
I200
sg197
NsS'x'
Nsg198
I00
sbag1
(g189
g3
NtRp244
(dp245
g199
S'giantbrain'
p246
sg50
Nsg179
I00
sg194
I13
sg195
g185
sg196
I00
sg170
I215
sg197
NsS'x'
Nsg198
I00
sbag1
(g189
g3
NtRp247
(dp248
g199
S'giantmutagenitor'
p249
sg50
Nsg179
I00
sg194
I14
sg195
g185
sg196
I00
sg170
I230
sg197
NsS'x'
Nsg198
I00
sbag1
(g189
g3
NtRp250
(dp251
g199
S'giantplasterpod'
p252
sg50
Nsg179
I00
sg194
I15
sg195
g185
sg196
I00
sg170
I245
sg197
NsS'x'
Nsg198
I00
sbag1
(g189
g3
NtRp253
(dp254
g199
S'giantplasteritor'
p255
sg50
Nsg179
I00
sg194
I16
sg195
g185
sg196
I00
sg170
I260
sg197
NsS'x'
Nsg198
I00
sbag1
(g189
g3
NtRp256
(dp257
g199
S'star'
p258
sg50
Nsg179
I00
sg194
I17
sg195
g185
sg196
I00
sg170
I275
sg197
NsS'x'
Nsg198
I00
sbasg172
(I124
I330
tp259
sg171
I65
sg176
F65
sg170
I65
sg175
I300
sg174
Nsg167
g168
(I104
I265
I40
I65
tRp260
sbsbsS'target'
p261
NsS'canbuild'
p262
I01
sS'clickat'
p263
NsS'twinklers'
p264
(lp265
g1
(csrc.twinkler
Twinkler
p266
g3
NtRp267
(dp268
S'claimed'
p269
I00
sS'sucker'
p270
NsS'ax'
p271
F-3.1105190607253217
sS'vx'
p272
F0.17053615885277359
sS'ay'
p273
F1.5560156202667024
sS't'
F3.637
sS'vy'
p274
F-0.27116723825181055
sS'y'
F-9.1468853191631041
sS'x'
F4.4001048081568124
sbasS'paused'
p275
I00
sS'edgepoint'
p276
NsS'healmode'
p277
I00
sS'iconclicked'
p278
NsS'cutmode'
p279
I00
sS'parttobuild'
p280
NsS'pscreen'
p281
NsS'shots'
p282
(lp283
sS'panel'
p284
g1
(csrc.panel
Panel
p285
g3
NtRp286
(dp287
g6
g8
sS'tiles'
p288
(lp289
g1
(g71
g3
NtRp290
(dp291
g68
S'app0'
p292
sg74
(lp293
I1
aI4
asbag1
(g71
g3
NtRp294
(dp295
g68
S'app0'
p296
sg74
(lp297
I1
aI3
asbag1
(g71
g3
NtRp298
(dp299
g68
S'app1'
p300
sg74
(lp301
I1
aI4
asbag1
(g71
g3
NtRp302
(dp303
g68
S'app1'
p304
sg74
(lp305
I1
asbag1
(g71
g3
NtRp306
(dp307
g68
S'app2'
p308
sg74
(lp309
I1
asbag1
(g71
g3
NtRp310
(dp311
g68
S'app2'
p312
sg74
(lp313
I1
aI3
asbasg179
NsS'cuberect'
p314
g168
(I2
I-4
I80
I80
tRp315
sS'ncuberect'
p316
g168
(I82
I6
I27
I61
tRp317
sS'ages'
p318
(lp319
I0
aI0
aI0
aI0
aI0
aI0
asS'loadrate'
p320
F0.5
sS'centers'
p321
Nsbsb.